S'memory     994MiB System memory\nprocessor  Intel(R) Core(TM) i5-3320M CPU @ 2.60GHz\nbridge     440FX - 82441FX PMC [Natoma]\nbridge     82371SB PIIX3 ISA [Natoma/Triton II]\nstorage    82371AB/EB/MB PIIX4 IDE\nnetwork    82540EM Gigabit Ethernet Controller\nbridge     82371AB/EB/MB PIIX4 ACPI\nstorage    82801HM/HEM (ICH8M/ICH8M-E) SATA Controller [AHCI mode]\nstorage    \n'
p0
.